; Function Attrs: mustprogress noreturn uwtable
define void @_ZN8nanobind6detail18raise_python_errorEv() local_unnamed_addr #14 personality ptr @__gxx_personality_v0 {
  %1 = tail call ptr @PyErr_Occurred()
  %.not = icmp eq ptr %1, null
  br i1 %.not, label %2, label %3, !prof !3

2:                                                ; preds = %0
  tail call void @_ZN8nanobind6detail16fail_unspecifiedEv() #29
  unreachable

3:                                                ; preds = %0
  %4 = tail call ptr @__cxa_allocate_exception(i64 40) #27
  invoke void @_ZN8nanobind12python_errorC1Ev(ptr noundef nonnull align 8 dereferenceable(40) %4)
          to label %5 unwind label %6

5:                                                ; preds = %3
  tail call void @__cxa_throw(ptr nonnull %4, ptr nonnull @_ZTIN8nanobind12python_errorE, ptr nonnull @_ZN8nanobind12python_errorD1Ev) #28
  unreachable

6:                                                ; preds = %3
  %7 = landingpad { ptr, i32 }
          cleanup
  tail call void @__cxa_free_exception(ptr nonnull %4) #27
  resume { ptr, i32 } %7
}